target datalayout = "e-m:e-p270:32:32-p271:32:32-p272:64:64-i64:64-i128:128-f80:128-n8:16:32:64-S128"
target triple = "x86_64-pc-linux-gnu"

%struct.PyEvent = type { i8 }

; Function Attrs: inlinehint nounwind uwtable
define internal i32 @_Py_atomic_compare_exchange_uint8(ptr noundef %0, ptr noundef %1, i8 noundef zeroext %2) #2 {
  %4 = alloca ptr, align 8
  %5 = alloca ptr, align 8
  %6 = alloca i8, align 1
  %7 = alloca i8, align 1
  %8 = alloca i8, align 1
  store ptr %0, ptr %4, align 8, !tbaa !17
  store ptr %1, ptr %5, align 8, !tbaa !17
  store i8 %2, ptr %6, align 1, !tbaa !13
  %9 = load ptr, ptr %4, align 8, !tbaa !17
  %10 = load ptr, ptr %5, align 8, !tbaa !17
  %11 = load i8, ptr %6, align 1, !tbaa !13
  store i8 %11, ptr %7, align 1, !tbaa !13
  %12 = load i8, ptr %10, align 1
  %13 = load i8, ptr %7, align 1
  %14 = cmpxchg ptr %9, i8 %12, i8 %13 seq_cst seq_cst, align 1
  %15 = extractvalue { i8, i1 } %14, 0
  %16 = extractvalue { i8, i1 } %14, 1
  br i1 %16, label %18, label %17

17:                                               ; preds = %3
  store i8 %15, ptr %10, align 1
  br label %18

18:                                               ; preds = %17, %3
  %19 = zext i1 %16 to i8
  store i8 %19, ptr %8, align 1, !tbaa !19
  %20 = load i8, ptr %8, align 1, !tbaa !19, !range !21, !noundef !22
  %21 = trunc i8 %20 to i1
  %22 = zext i1 %21 to i32
  ret i32 %22
}

; Function Attrs: inlinehint nounwind uwtable
define internal zeroext i8 @_Py_atomic_load_uint8(ptr noundef %0) #2 {
  %2 = alloca ptr, align 8
  %3 = alloca i8, align 1
  store ptr %0, ptr %2, align 8, !tbaa !17
  %4 = load ptr, ptr %2, align 8, !tbaa !17
  %5 = load atomic i8, ptr %4 seq_cst, align 1
  store i8 %5, ptr %3, align 1
  %6 = load i8, ptr %3, align 1, !tbaa !13
  ret i8 %6
}

; Function Attrs: nounwind uwtable
define dso_local i32 @PyEvent_WaitTimed(ptr noundef %0, i64 noundef %1, i32 noundef %2) #0 {
  %4 = alloca i32, align 4
  %5 = alloca ptr, align 8
  %6 = alloca i64, align 8
  %7 = alloca i32, align 4
  %8 = alloca i8, align 1
  %9 = alloca i32, align 4
  %10 = alloca i8, align 1
  store ptr %0, ptr %5, align 8, !tbaa !25
  store i64 %1, ptr %6, align 8, !tbaa !9
  store i32 %2, ptr %7, align 4, !tbaa !11
  br label %11

11:                                               ; preds = %42, %3
  call void @llvm.lifetime.start.p0(i64 1, ptr %8) #7
  %12 = load ptr, ptr %5, align 8, !tbaa !25
  %13 = getelementptr inbounds nuw %struct.PyEvent, ptr %12, i32 0, i32 0
  %14 = call zeroext i8 @_Py_atomic_load_uint8(ptr noundef %13)
  store i8 %14, ptr %8, align 1, !tbaa !13
  %15 = load i8, ptr %8, align 1, !tbaa !13
  %16 = zext i8 %15 to i32
  %17 = icmp eq i32 %16, 1
  br i1 %17, label %18, label %19

18:                                               ; preds = %11
  store i32 1, ptr %4, align 4
  store i32 1, ptr %9, align 4
  br label %42

19:                                               ; preds = %11
  %20 = load i8, ptr %8, align 1, !tbaa !13
  %21 = zext i8 %20 to i32
  %22 = icmp eq i32 %21, 0
  br i1 %22, label %23, label %30

23:                                               ; preds = %19
  %24 = load ptr, ptr %5, align 8, !tbaa !25
  %25 = getelementptr inbounds nuw %struct.PyEvent, ptr %24, i32 0, i32 0
  %26 = call i32 @_Py_atomic_compare_exchange_uint8(ptr noundef %25, ptr noundef %8, i8 noundef zeroext 2)
  %27 = icmp ne i32 %26, 0
  br i1 %27, label %29, label %28

28:                                               ; preds = %23
  store i32 3, ptr %9, align 4
  br label %42

29:                                               ; preds = %23
  br label %30

30:                                               ; preds = %29, %19
  call void @llvm.lifetime.start.p0(i64 1, ptr %10) #7
  store i8 2, ptr %10, align 1, !tbaa !13
  %31 = load ptr, ptr %5, align 8, !tbaa !25
  %32 = getelementptr inbounds nuw %struct.PyEvent, ptr %31, i32 0, i32 0
  %33 = load i64, ptr %6, align 8, !tbaa !9
  %34 = load i32, ptr %7, align 4, !tbaa !11
  %35 = call i32 @_PyParkingLot_Park(ptr noundef %32, ptr noundef %10, i64 noundef 1, i64 noundef %33, ptr noundef null, i32 noundef %34)
  %36 = load ptr, ptr %5, align 8, !tbaa !25
  %37 = getelementptr inbounds nuw %struct.PyEvent, ptr %36, i32 0, i32 0
  %38 = call zeroext i8 @_Py_atomic_load_uint8(ptr noundef %37)
  %39 = zext i8 %38 to i32
  %40 = icmp eq i32 %39, 1
  %41 = zext i1 %40 to i32
  store i32 %41, ptr %4, align 4
  store i32 1, ptr %9, align 4
  call void @llvm.lifetime.end.p0(i64 1, ptr %10) #7
  br label %42

42:                                               ; preds = %30, %28, %18
  call void @llvm.lifetime.end.p0(i64 1, ptr %8) #7
  %43 = load i32, ptr %9, align 4
  switch i32 %43, label %46 [
    i32 1, label %44
    i32 3, label %11
  ]

44:                                               ; preds = %42
  %45 = load i32, ptr %4, align 4
  ret i32 %45

46:                                               ; preds = %42
  unreachable
}