; Function Attrs: nounwind uwtable
define dso_local range(i32 0, 2) i32 @PyEvent_WaitTimed(ptr noundef %0, i64 noundef %1, i32 noundef %2) local_unnamed_addr #0 {
  %4 = alloca i8, align 1
  br label %5

5:                                                ; preds = %_Py_atomic_compare_exchange_uint8.exit, %3
  %6 = load atomic i8, ptr %0 seq_cst, align 1
  switch i8 %6, label %9 [
    i8 1, label %.loopexit
    i8 0, label %_Py_atomic_compare_exchange_uint8.exit
  ]

_Py_atomic_compare_exchange_uint8.exit:           ; preds = %5
  %7 = cmpxchg ptr %0, i8 0, i8 2 seq_cst seq_cst, align 1
  %8 = extractvalue { i8, i1 } %7, 1
  br i1 %8, label %9, label %5

9:                                                ; preds = %5, %_Py_atomic_compare_exchange_uint8.exit
  call void @llvm.lifetime.start.p0(i64 1, ptr nonnull %4) #8
  store i8 2, ptr %4, align 1, !tbaa !12
  %10 = call i32 @_PyParkingLot_Park(ptr noundef nonnull %0, ptr noundef nonnull %4, i64 noundef 1, i64 noundef %1, ptr noundef null, i32 noundef %2) #8
  %11 = load atomic i8, ptr %0 seq_cst, align 1
  %12 = icmp eq i8 %11, 1
  %13 = zext i1 %12 to i32
  call void @llvm.lifetime.end.p0(i64 1, ptr nonnull %4) #8
  br label %.loopexit

.loopexit:                                        ; preds = %5, %9
  %.1.ph = phi i32 [ %13, %9 ], [ 1, %5 ]
  ret i32 %.1.ph
}